target datalayout = "e-m:e-p270:32:32-p271:32:32-p272:64:64-i64:64-i128:128-f80:128-n8:16:32:64-S128"
target triple = "x86_64-pc-linux-gnu"

%struct.CinVideoContext = type { ptr, ptr, i32, [256 x i32], [3 x ptr] }

@.str.2 = private unnamed_addr constant [32 x i8] c"Can't allocate bitmap buffers.\0A\00", align 1

; Function Attrs: cold nounwind optsize uwtable
define internal i32 @allocate_buffers(ptr noundef %0) #0 {
  %2 = alloca i32, align 4
  %3 = alloca ptr, align 8
  %4 = alloca i32, align 4
  %5 = alloca i32, align 4
  store ptr %0, ptr %3, align 8, !tbaa !29
  call void @llvm.lifetime.start.p0(i64 4, ptr %4) #7
  store i32 0, ptr %4, align 4, !tbaa !47
  br label %6

6:                                                ; preds = %32, %1
  %7 = load i32, ptr %4, align 4, !tbaa !47
  %8 = icmp slt i32 %7, 3
  br i1 %8, label %9, label %35

9:                                                ; preds = %6
  %10 = load ptr, ptr %3, align 8, !tbaa !29
  %11 = getelementptr inbounds nuw %struct.CinVideoContext, ptr %10, i32 0, i32 2
  %12 = load i32, ptr %11, align 8, !tbaa !38
  %13 = zext i32 %12 to i64
  %14 = call noalias ptr @av_mallocz(i64 noundef %13)
  %15 = load ptr, ptr %3, align 8, !tbaa !29
  %16 = getelementptr inbounds nuw %struct.CinVideoContext, ptr %15, i32 0, i32 4
  %17 = load i32, ptr %4, align 4, !tbaa !47
  %18 = sext i32 %17 to i64
  %19 = getelementptr inbounds [3 x ptr], ptr %16, i64 0, i64 %18
  store ptr %14, ptr %19, align 8, !tbaa !45
  %20 = load ptr, ptr %3, align 8, !tbaa !29
  %21 = getelementptr inbounds nuw %struct.CinVideoContext, ptr %20, i32 0, i32 4
  %22 = load i32, ptr %4, align 4, !tbaa !47
  %23 = sext i32 %22 to i64
  %24 = getelementptr inbounds [3 x ptr], ptr %21, i64 0, i64 %23
  %25 = load ptr, ptr %24, align 8, !tbaa !45
  %26 = icmp ne ptr %25, null
  br i1 %26, label %31, label %27

27:                                               ; preds = %9
  %28 = load ptr, ptr %3, align 8, !tbaa !29
  %29 = getelementptr inbounds nuw %struct.CinVideoContext, ptr %28, i32 0, i32 0
  %30 = load ptr, ptr %29, align 8, !tbaa !31
  call void (ptr, i32, ptr, ...) @av_log(ptr noundef %30, i32 noundef 16, ptr noundef @.str.2)
  store i32 -12, ptr %2, align 4
  store i32 1, ptr %5, align 4
  br label %36

31:                                               ; preds = %9
  br label %32

32:                                               ; preds = %31
  %33 = load i32, ptr %4, align 4, !tbaa !47
  %34 = add nsw i32 %33, 1
  store i32 %34, ptr %4, align 4, !tbaa !47
  br label %6, !llvm.loop !54

35:                                               ; preds = %6
  store i32 0, ptr %2, align 4
  store i32 1, ptr %5, align 4
  br label %36

36:                                               ; preds = %35, %27
  call void @llvm.lifetime.end.p0(i64 4, ptr %4) #7
  %37 = load i32, ptr %2, align 4
  ret i32 %37
}