; Function Attrs: cold nounwind optsize uwtable
define internal fastcc range(i32 -12, 1) i32 @allocate_buffers(ptr noundef captures(none) %0) unnamed_addr #0 {
  %2 = getelementptr inbounds nuw i8, ptr %0, i64 16
  %3 = getelementptr inbounds nuw i8, ptr %0, i64 1048
  br label %5

4:                                                ; preds = %5
  %indvars.iv.next = add nuw nsw i64 %indvars.iv, 1
  %exitcond.not = icmp eq i64 %indvars.iv.next, 3
  br i1 %exitcond.not, label %.loopexit, label %5, !llvm.loop !54

5:                                                ; preds = %1, %4
  %indvars.iv = phi i64 [ 0, %1 ], [ %indvars.iv.next, %4 ]
  %6 = load i32, ptr %2, align 8, !tbaa !35
  %7 = zext i32 %6 to i64
  %8 = tail call noalias ptr @av_mallocz(i64 noundef %7) #7
  %9 = getelementptr inbounds nuw [3 x ptr], ptr %3, i64 0, i64 %indvars.iv
  store ptr %8, ptr %9, align 8, !tbaa !44
  %.not = icmp eq ptr %8, null
  br i1 %.not, label %10, label %4

10:                                               ; preds = %5
  %11 = load ptr, ptr %0, align 8, !tbaa !27
  tail call void (ptr, i32, ptr, ...) @av_log(ptr noundef %11, i32 noundef 16, ptr noundef nonnull @.str.2) #7
  br label %.loopexit

.loopexit:                                        ; preds = %4, %10
  %.08 = phi i32 [ -12, %10 ], [ 0, %4 ]
  ret i32 %.08
}